target datalayout = "e-m:e-p270:32:32-p271:32:32-p272:64:64-i64:64-i128:128-f80:128-n8:16:32:64-S128"
target triple = "x86_64-pc-linux-gnu"

; Function Attrs: nounwind uwtable
define void @Abc_QuickSort2(ptr noundef %0, i32 noundef %1, i32 noundef %2) #0 {
  %4 = alloca ptr, align 8
  %5 = alloca i32, align 4
  %6 = alloca i32, align 4
  %7 = alloca i32, align 4
  %8 = alloca i32, align 4
  store ptr %0, ptr %4, align 8
  store i32 %1, ptr %5, align 4
  store i32 %2, ptr %6, align 4
  store i32 0, ptr %8, align 4
  %9 = load i32, ptr %6, align 4
  %10 = icmp ne i32 %9, 0
  br i1 %10, label %11, label %28

11:                                               ; preds = %3
  %12 = load ptr, ptr %4, align 8
  %13 = load i32, ptr %5, align 4
  %14 = sub nsw i32 %13, 1
  call void @Abc_QuickSort2Dec_rec(ptr noundef %12, i32 noundef 0, i32 noundef %14)
  %15 = load i32, ptr %8, align 4
  %16 = icmp ne i32 %15, 0
  br i1 %16, label %17, label %27

17:                                               ; preds = %11
  store i32 1, ptr %7, align 4
  br label %18

18:                                               ; preds = %23, %17
  %19 = load i32, ptr %7, align 4
  %20 = load i32, ptr %5, align 4
  %21 = icmp slt i32 %19, %20
  br i1 %21, label %22, label %26

22:                                               ; preds = %18
  br label %23

23:                                               ; preds = %22
  %24 = load i32, ptr %7, align 4
  %25 = add nsw i32 %24, 1
  store i32 %25, ptr %7, align 4
  br label %18, !llvm.loop !49

26:                                               ; preds = %18
  br label %27

27:                                               ; preds = %26, %11
  br label %45

28:                                               ; preds = %3
  %29 = load ptr, ptr %4, align 8
  %30 = load i32, ptr %5, align 4
  %31 = sub nsw i32 %30, 1
  call void @Abc_QuickSort2Inc_rec(ptr noundef %29, i32 noundef 0, i32 noundef %31)
  %32 = load i32, ptr %8, align 4
  %33 = icmp ne i32 %32, 0
  br i1 %33, label %34, label %44

34:                                               ; preds = %28
  store i32 1, ptr %7, align 4
  br label %35

35:                                               ; preds = %40, %34
  %36 = load i32, ptr %7, align 4
  %37 = load i32, ptr %5, align 4
  %38 = icmp slt i32 %36, %37
  br i1 %38, label %39, label %43

39:                                               ; preds = %35
  br label %40

40:                                               ; preds = %39
  %41 = load i32, ptr %7, align 4
  %42 = add nsw i32 %41, 1
  store i32 %42, ptr %7, align 4
  br label %35, !llvm.loop !50

43:                                               ; preds = %35
  br label %44

44:                                               ; preds = %43, %28
  br label %45

45:                                               ; preds = %44, %27
  ret void
}